; Function Attrs: mustprogress nounwind uwtable
define hidden void @_ZN6hermes2vm16SamplingProfiler27markRootsForCompleteMarkingERNS0_12RootAcceptorE(ptr noundef nonnull align 8 dereferenceable(256) %this, ptr noundef nonnull align 8 dereferenceable(8) %acceptor) local_unnamed_addr #0 align 2 {
entry:
  %runtimeDataLock_ = getelementptr inbounds i8, ptr %this, i64 8
  %call1.i.i.i = tail call noundef i32 @pthread_mutex_lock(ptr noundef nonnull %runtimeDataLock_) #18
  %tobool.not.i.i = icmp eq i32 %call1.i.i.i, 0
  br i1 %tobool.not.i.i, label %_ZNSt10lock_guardISt5mutexEC2ERS0_.exit, label %if.then.i.i

if.then.i.i:                                      ; preds = %entry
  tail call void @_ZSt20__throw_system_errori(i32 noundef %call1.i.i.i) #15
  unreachable

_ZNSt10lock_guardISt5mutexEC2ERS0_.exit:          ; preds = %entry
  %domains_ = getelementptr inbounds i8, ptr %this, i64 200
  %0 = load ptr, ptr %domains_, align 8
  %_M_finish.i = getelementptr inbounds i8, ptr %this, i64 208
  %1 = load ptr, ptr %_M_finish.i, align 8
  %cmp.i.not5 = icmp eq ptr %0, %1
  br i1 %cmp.i.not5, label %for.end, label %for.body

for.body:                                         ; preds = %_ZNSt10lock_guardISt5mutexEC2ERS0_.exit, %for.body
  %__begin2.sroa.0.06 = phi ptr [ %incdec.ptr.i, %for.body ], [ %0, %_ZNSt10lock_guardISt5mutexEC2ERS0_.exit ]
  %vtable.i = load ptr, ptr %acceptor, align 8
  %vfn.i = getelementptr inbounds i8, ptr %vtable.i, i64 32
  %2 = load ptr, ptr %vfn.i, align 8
  tail call void %2(ptr noundef nonnull align 8 dereferenceable(8) %acceptor, ptr noundef nonnull align 8 dereferenceable(8) %__begin2.sroa.0.06) #18
  %incdec.ptr.i = getelementptr inbounds i8, ptr %__begin2.sroa.0.06, i64 8
  %cmp.i.not = icmp eq ptr %incdec.ptr.i, %1
  br i1 %cmp.i.not, label %for.end, label %for.body

for.end:                                          ; preds = %for.body, %_ZNSt10lock_guardISt5mutexEC2ERS0_.exit
  %call1.i.i.i2 = tail call noundef i32 @pthread_mutex_unlock(ptr noundef nonnull %runtimeDataLock_) #18
  ret void
}